target datalayout = "e-m:e-p270:32:32-p271:32:32-p272:64:64-i64:64-i128:128-f80:128-n8:16:32:64-S128"
target triple = "x86_64-pc-linux-gnu"

%struct.strbuf = type { i64, i64, ptr }
%struct.strvec = type { ptr, i64, i64 }
%struct.child_process = type { %struct.strvec, %struct.strvec, i32, i32, i64, ptr, ptr, i32, i32, i32, ptr, i16, ptr }

@.str.5 = private unnamed_addr constant [12 x i8] c"fsmonitor.c\00", align 1
@.str.11 = private unnamed_addr constant [3 x i8] c"%s\00", align 1
@.str.17 = private unnamed_addr constant [9 x i8] c"fsm_hook\00", align 1
@the_repository = external global ptr, align 8
@.str.30 = private unnamed_addr constant [3 x i8] c"%d\00", align 1
@.str.31 = private unnamed_addr constant [6 x i8] c"query\00", align 1
@.str.32 = private unnamed_addr constant [13 x i8] c"query/failed\00", align 1
@.str.33 = private unnamed_addr constant [22 x i8] c"query/response-length\00", align 1

; Function Attrs: inlinehint nounwind uwtable
define internal i32 @capture_command(ptr noundef %0, ptr noundef %1, i64 noundef %2) #4 {
  %4 = alloca ptr, align 8
  %5 = alloca ptr, align 8
  %6 = alloca i64, align 8
  store ptr %0, ptr %4, align 8, !tbaa !69
  store ptr %1, ptr %5, align 8, !tbaa !41
  store i64 %2, ptr %6, align 8, !tbaa !10
  %7 = load ptr, ptr %4, align 8, !tbaa !69
  %8 = load ptr, ptr %5, align 8, !tbaa !41
  %9 = load i64, ptr %6, align 8, !tbaa !10
  %10 = call i32 @pipe_command(ptr noundef %7, ptr noundef null, i64 noundef 0, ptr noundef %8, i64 noundef %9, ptr noundef null, i64 noundef 0)
  ret i32 %10
}

; Function Attrs: nounwind uwtable
define internal i32 @query_fsmonitor_hook(ptr noundef %0, i32 noundef %1, ptr noundef %2, ptr noundef %3) #0 {
  %5 = alloca i32, align 4
  %6 = alloca ptr, align 8
  %7 = alloca i32, align 4
  %8 = alloca ptr, align 8
  %9 = alloca ptr, align 8
  %10 = alloca %struct.child_process, align 8
  %11 = alloca i32, align 4
  %12 = alloca i32, align 4
  store ptr %0, ptr %6, align 8, !tbaa !55
  store i32 %1, ptr %7, align 4, !tbaa !14
  store ptr %2, ptr %8, align 8, !tbaa !12
  store ptr %3, ptr %9, align 8, !tbaa !41
  call void @llvm.lifetime.start.p0(i64 120, ptr %10) #8
  call void @llvm.memcpy.p0.p0.i64(ptr align 8 %10, ptr align 8 @__const.query_fsmonitor_hook.cp, i64 120, i1 false)
  call void @llvm.lifetime.start.p0(i64 4, ptr %11) #8
  %13 = load ptr, ptr %6, align 8, !tbaa !55
  %14 = call i32 @fsm_settings__get_mode(ptr noundef %13)
  %15 = icmp ne i32 %14, 1
  br i1 %15, label %16, label %17

16:                                               ; preds = %4
  store i32 -1, ptr %5, align 4
  store i32 1, ptr %12, align 4
  br label %48

17:                                               ; preds = %4
  %18 = getelementptr inbounds nuw %struct.child_process, ptr %10, i32 0, i32 0
  %19 = load ptr, ptr %6, align 8, !tbaa !55
  %20 = call ptr @fsm_settings__get_hook_path(ptr noundef %19)
  %21 = call ptr @strvec_push(ptr noundef %18, ptr noundef %20)
  %22 = getelementptr inbounds nuw %struct.child_process, ptr %10, i32 0, i32 0
  %23 = load i32, ptr %7, align 4, !tbaa !14
  %24 = call ptr (ptr, ptr, ...) @strvec_pushf(ptr noundef %22, ptr noundef @.str.30, i32 noundef %23)
  %25 = getelementptr inbounds nuw %struct.child_process, ptr %10, i32 0, i32 0
  %26 = load ptr, ptr %8, align 8, !tbaa !12
  %27 = call ptr (ptr, ptr, ...) @strvec_pushf(ptr noundef %25, ptr noundef @.str.11, ptr noundef %26)
  %28 = getelementptr inbounds nuw %struct.child_process, ptr %10, i32 0, i32 11
  %29 = load i16, ptr %28, align 8
  %30 = and i16 %29, -33
  %31 = or i16 %30, 32
  store i16 %31, ptr %28, align 8
  %32 = load ptr, ptr @the_repository, align 8, !tbaa !55
  %33 = call ptr @repo_get_work_tree(ptr noundef %32)
  %34 = getelementptr inbounds nuw %struct.child_process, ptr %10, i32 0, i32 10
  store ptr %33, ptr %34, align 8, !tbaa !60
  call void (ptr, i32, ptr, ptr, ptr, ...) @trace2_region_enter_fl(ptr noundef @.str.5, i32 noundef 176, ptr noundef @.str.17, ptr noundef @.str.31, ptr noundef null)
  %35 = load ptr, ptr %9, align 8, !tbaa !41
  %36 = call i32 @capture_command(ptr noundef %10, ptr noundef %35, i64 noundef 1024)
  store i32 %36, ptr %11, align 4, !tbaa !14
  %37 = load i32, ptr %11, align 4, !tbaa !14
  %38 = icmp ne i32 %37, 0
  br i1 %38, label %39, label %42

39:                                               ; preds = %17
  %40 = load i32, ptr %11, align 4, !tbaa !14
  %41 = sext i32 %40 to i64
  call void @trace2_data_intmax_fl(ptr noundef @.str.5, i32 noundef 181, ptr noundef @.str.17, ptr noundef null, ptr noundef @.str.32, i64 noundef %41)
  br label %46

42:                                               ; preds = %17
  %43 = load ptr, ptr %9, align 8, !tbaa !41
  %44 = getelementptr inbounds nuw %struct.strbuf, ptr %43, i32 0, i32 1
  %45 = load i64, ptr %44, align 8, !tbaa !16
  call void @trace2_data_intmax_fl(ptr noundef @.str.5, i32 noundef 184, ptr noundef @.str.17, ptr noundef null, ptr noundef @.str.33, i64 noundef %45)
  br label %46

46:                                               ; preds = %42, %39
  call void (ptr, i32, ptr, ptr, ptr, ...) @trace2_region_leave_fl(ptr noundef @.str.5, i32 noundef 186, ptr noundef @.str.17, ptr noundef @.str.31, ptr noundef null)
  %47 = load i32, ptr %11, align 4, !tbaa !14
  store i32 %47, ptr %5, align 4
  store i32 1, ptr %12, align 4
  br label %48

48:                                               ; preds = %46, %16
  call void @llvm.lifetime.end.p0(i64 4, ptr %11) #8
  call void @llvm.lifetime.end.p0(i64 120, ptr %10) #8
  %49 = load i32, ptr %5, align 4
  ret i32 %49
}