; Function Attrs: nounwind uwtable
define internal fastcc i32 @query_fsmonitor_hook(ptr noundef %0, i32 noundef range(i32 1, 3) %1, ptr noundef %2, ptr noundef nonnull %3) unnamed_addr #0 {
  %5 = alloca %struct.child_process, align 8
  call void @llvm.lifetime.start.p0(i64 120, ptr nonnull %5) #8
  call void @llvm.memcpy.p0.p0.i64(ptr noundef nonnull align 8 dereferenceable(120) %5, ptr noundef nonnull align 8 dereferenceable(120) @__const.query_fsmonitor_hook.cp, i64 120, i1 false)
  %6 = tail call i32 @fsm_settings__get_mode(ptr noundef %0) #8
  %.not = icmp eq i32 %6, 1
  br i1 %.not, label %7, label %25

7:                                                ; preds = %4
  %8 = tail call ptr @fsm_settings__get_hook_path(ptr noundef %0) #8
  %9 = call ptr @strvec_push(ptr noundef nonnull %5, ptr noundef %8) #8
  %10 = call ptr (ptr, ptr, ...) @strvec_pushf(ptr noundef nonnull %5, ptr noundef nonnull @.str.30, i32 noundef %1) #8
  %11 = call ptr (ptr, ptr, ...) @strvec_pushf(ptr noundef nonnull %5, ptr noundef nonnull @.str.11, ptr noundef %2) #8
  %12 = getelementptr inbounds nuw i8, ptr %5, i64 104
  %13 = load i16, ptr %12, align 8
  %14 = or i16 %13, 32
  store i16 %14, ptr %12, align 8
  %15 = load ptr, ptr @the_repository, align 8, !tbaa !46
  %16 = call ptr @repo_get_work_tree(ptr noundef %15) #8
  %17 = getelementptr inbounds nuw i8, ptr %5, i64 96
  store ptr %16, ptr %17, align 8, !tbaa !51
  call void (ptr, i32, ptr, ptr, ptr, ...) @trace2_region_enter_fl(ptr noundef nonnull @.str.5, i32 noundef 176, ptr noundef nonnull @.str.17, ptr noundef nonnull @.str.31, ptr noundef null) #8
  %18 = call i32 @pipe_command(ptr noundef nonnull %5, ptr noundef null, i64 noundef 0, ptr noundef nonnull %3, i64 noundef 1024, ptr noundef null, i64 noundef 0) #8
  %.not10 = icmp eq i32 %18, 0
  br i1 %.not10, label %21, label %19

19:                                               ; preds = %7
  %20 = sext i32 %18 to i64
  call void @trace2_data_intmax_fl(ptr noundef nonnull @.str.5, i32 noundef 181, ptr noundef nonnull @.str.17, ptr noundef null, ptr noundef nonnull @.str.32, i64 noundef %20) #8
  br label %24

21:                                               ; preds = %7
  %22 = getelementptr inbounds nuw i8, ptr %3, i64 8
  %23 = load i64, ptr %22, align 8, !tbaa !7
  call void @trace2_data_intmax_fl(ptr noundef nonnull @.str.5, i32 noundef 184, ptr noundef nonnull @.str.17, ptr noundef null, ptr noundef nonnull @.str.33, i64 noundef %23) #8
  br label %24

24:                                               ; preds = %21, %19
  call void (ptr, i32, ptr, ptr, ptr, ...) @trace2_region_leave_fl(ptr noundef nonnull @.str.5, i32 noundef 186, ptr noundef nonnull @.str.17, ptr noundef nonnull @.str.31, ptr noundef null) #8
  br label %25

25:                                               ; preds = %4, %24
  %.0 = phi i32 [ %18, %24 ], [ -1, %4 ]
  call void @llvm.lifetime.end.p0(i64 120, ptr nonnull %5) #8
  ret i32 %.0
}